target datalayout = "e-m:e-p270:32:32-p271:32:32-p272:64:64-i64:64-i128:128-f80:128-n8:16:32:64-S128"
target triple = "x86_64-pc-linux-gnu"

%struct.pmi2_job_info = type { %struct.slurm_step_id_msg, i32, i32, i32, i32, i32, ptr, i32, i32, ptr, ptr, ptr, ptr, ptr, ptr, ptr, ptr }
%struct.slurm_step_id_msg = type { i64, i32, i32, i32 }

@pmix_stepd_hostlist = internal global ptr null, align 8
@tree_sock_addr = external global [0 x i8], align 1
@job_info = external global %struct.pmi2_job_info, align 8

; Function Attrs: nounwind uwtable
define internal i32 @pmix_stepd_send(ptr noundef %0, i32 noundef %1, i32 noundef %2) #0 {
  %4 = alloca ptr, align 8
  %5 = alloca i32, align 4
  %6 = alloca i32, align 4
  %7 = alloca i32, align 4
  %8 = alloca ptr, align 8
  %9 = alloca i32, align 4
  %10 = alloca i32, align 4
  store ptr %0, ptr %4, align 8
  store i32 %1, ptr %5, align 4
  store i32 %2, ptr %6, align 4
  call void @llvm.lifetime.start.p0(i64 4, ptr %7) #6
  store i32 0, ptr %7, align 4
  call void @llvm.lifetime.start.p0(i64 8, ptr %8) #6
  %11 = load ptr, ptr @pmix_stepd_hostlist, align 8
  %12 = load i32, ptr %6, align 4
  %13 = call ptr @slurm_hostlist_nth(ptr noundef %11, i32 noundef %12)
  store ptr %13, ptr %8, align 8
  call void @llvm.lifetime.start.p0(i64 4, ptr %9) #6
  store i32 1, ptr %9, align 4
  call void @llvm.lifetime.start.p0(i64 4, ptr %10) #6
  store i32 0, ptr %10, align 4
  br label %14

14:                                               ; preds = %31, %3
  br label %15

15:                                               ; preds = %14
  %16 = load i32, ptr %5, align 4
  %17 = load ptr, ptr %4, align 8
  %18 = call i32 @slurm_forward_data(ptr noundef %8, ptr noundef @tree_sock_addr, i32 noundef %16, ptr noundef %17)
  store i32 %18, ptr %7, align 4
  %19 = load i32, ptr %7, align 4
  %20 = icmp eq i32 %19, 0
  br i1 %20, label %21, label %22

21:                                               ; preds = %15
  br label %36

22:                                               ; preds = %15
  %23 = load i32, ptr %10, align 4
  %24 = add nsw i32 %23, 1
  store i32 %24, ptr %10, align 4
  %25 = load i32, ptr %10, align 4
  %26 = icmp sge i32 %25, 5
  br i1 %26, label %27, label %31

27:                                               ; preds = %22
  %28 = load i32, ptr getelementptr inbounds nuw (%struct.slurm_step_id_msg, ptr @job_info, i32 0, i32 1), align 8
  %29 = load i32, ptr getelementptr inbounds nuw (%struct.slurm_step_id_msg, ptr @job_info, i32 0, i32 3), align 8
  %30 = call i32 @slurm_kill_job_step(i32 noundef %28, i32 noundef %29, i16 noundef zeroext 9, i16 noundef zeroext 0)
  br label %31

31:                                               ; preds = %27, %22
  %32 = load i32, ptr %9, align 4
  %33 = call i32 @sleep(i32 noundef %32)
  %34 = load i32, ptr %9, align 4
  %35 = mul i32 %34, 2
  store i32 %35, ptr %9, align 4
  br label %14, !llvm.loop !18

36:                                               ; preds = %21
  %37 = load ptr, ptr %8, align 8
  call void @free(ptr noundef %37) #6
  %38 = load i32, ptr %7, align 4
  call void @llvm.lifetime.end.p0(i64 4, ptr %10) #6
  call void @llvm.lifetime.end.p0(i64 4, ptr %9) #6
  call void @llvm.lifetime.end.p0(i64 8, ptr %8) #6
  call void @llvm.lifetime.end.p0(i64 4, ptr %7) #6
  ret i32 %38
}