; Function Attrs: nounwind uwtable
define internal fastcc void @pmix_stepd_send(ptr noundef %0, i32 noundef %1, i32 noundef %2) unnamed_addr #2 {
  %4 = alloca ptr, align 8
  call void @llvm.lifetime.start.p0(i64 8, ptr nonnull %4) #9
  %5 = load ptr, ptr @pmix_stepd_hostlist, align 8
  %6 = tail call ptr @slurm_hostlist_nth(ptr noundef %5, i32 noundef %2) #9
  store ptr %6, ptr %4, align 8
  %7 = call i32 @slurm_forward_data(ptr noundef nonnull %4, ptr noundef nonnull @tree_sock_addr, i32 noundef %1, ptr noundef %0) #9
  %8 = icmp eq i32 %7, 0
  br i1 %8, label %._crit_edge, label %.lr.ph

.lr.ph:                                           ; preds = %3, %15
  %.011 = phi i32 [ %9, %15 ], [ 0, %3 ]
  %.0810 = phi i32 [ %17, %15 ], [ 1, %3 ]
  %9 = add nuw nsw i32 %.011, 1
  %10 = icmp samesign ugt i32 %.011, 3
  br i1 %10, label %11, label %15

11:                                               ; preds = %.lr.ph
  %12 = load i32, ptr getelementptr inbounds nuw (i8, ptr @job_info, i64 8), align 8
  %13 = load i32, ptr getelementptr inbounds nuw (i8, ptr @job_info, i64 16), align 8
  %14 = call i32 @slurm_kill_job_step(i32 noundef %12, i32 noundef %13, i16 noundef zeroext 9, i16 noundef zeroext 0) #9
  br label %15

15:                                               ; preds = %11, %.lr.ph
  %16 = call i32 @sleep(i32 noundef %.0810) #9
  %17 = shl i32 %.0810, 1
  %18 = call i32 @slurm_forward_data(ptr noundef nonnull %4, ptr noundef nonnull @tree_sock_addr, i32 noundef %1, ptr noundef %0) #9
  %19 = icmp eq i32 %18, 0
  br i1 %19, label %._crit_edge, label %.lr.ph, !llvm.loop !18

._crit_edge:                                      ; preds = %15, %3
  %20 = load ptr, ptr %4, align 8
  call void @free(ptr noundef %20) #9
  call void @llvm.lifetime.end.p0(i64 8, ptr nonnull %4) #9
  ret void
}